; Function Attrs: nounwind uwtable
define range(i32 -12, 1) i32 @ffio_open_null_buf(ptr noundef writeonly captures(none) %0) local_unnamed_addr #3 {
  %2 = tail call noalias ptr @av_mallocz(i64 noundef 1336) #14
  %.not21.i = icmp eq ptr %2, null
  br i1 %.not21.i, label %url_open_dyn_buf_internal.exit, label %3

3:                                                ; preds = %1
  %4 = getelementptr inbounds nuw i8, ptr %2, i64 280
  %5 = getelementptr inbounds nuw i8, ptr %2, i64 304
  store i32 1024, ptr %5, align 8, !tbaa !77
  %6 = getelementptr inbounds nuw i8, ptr %2, i64 308
  tail call void @llvm.memset.p0.i64(ptr noundef nonnull align 8 dereferenceable(280) %2, i8 0, i64 280, i1 false)
  %7 = getelementptr inbounds nuw i8, ptr %2, i64 8
  store ptr %6, ptr %7, align 8, !tbaa !4
  %8 = getelementptr inbounds nuw i8, ptr %2, i64 16
  store i32 1024, ptr %8, align 8, !tbaa !13
  %9 = getelementptr inbounds nuw i8, ptr %2, i64 264
  store i32 1024, ptr %9, align 8, !tbaa !14
  %10 = getelementptr inbounds nuw i8, ptr %2, i64 24
  store ptr %6, ptr %10, align 8, !tbaa !16
  %11 = getelementptr inbounds nuw i8, ptr %2, i64 184
  store ptr %6, ptr %11, align 8, !tbaa !17
  %12 = getelementptr inbounds nuw i8, ptr %2, i64 40
  store ptr %4, ptr %12, align 8, !tbaa !18
  %.sink7.i.i.i = getelementptr inbounds nuw i8, ptr %2, i64 1332
  %13 = getelementptr inbounds nuw i8, ptr %2, i64 32
  store ptr %.sink7.i.i.i, ptr %13, align 8, !tbaa !19
  %14 = getelementptr inbounds nuw i8, ptr %2, i64 88
  store i32 1, ptr %14, align 8, !tbaa !20
  %15 = getelementptr inbounds nuw i8, ptr %2, i64 56
  %16 = getelementptr inbounds nuw i8, ptr %2, i64 64
  store ptr @dyn_buf_seek, ptr %16, align 8, !tbaa !23
  %17 = getelementptr inbounds nuw i8, ptr %2, i64 72
  %18 = getelementptr inbounds nuw i8, ptr %2, i64 144
  tail call void @llvm.memset.p0.i64(ptr noundef nonnull align 8 dereferenceable(16) %17, i8 0, i64 16, i1 false)
  store i32 1, ptr %18, align 8, !tbaa !24
  %19 = getelementptr inbounds nuw i8, ptr %2, i64 216
  store i32 32768, ptr %19, align 8, !tbaa !26
  %20 = getelementptr inbounds nuw i8, ptr %2, i64 128
  %21 = getelementptr inbounds nuw i8, ptr %2, i64 220
  tail call void @llvm.memset.p0.i64(ptr noundef nonnull align 8 dereferenceable(16) %20, i8 0, i64 16, i1 false)
  store i32 3, ptr %21, align 4, !tbaa !30
  %22 = getelementptr inbounds nuw i8, ptr %2, i64 224
  store i64 -9223372036854775808, ptr %22, align 8, !tbaa !31
  store ptr %2, ptr %0, align 8, !tbaa !79
  store ptr @null_buf_write, ptr %15, align 8, !tbaa !21
  br label %url_open_dyn_buf_internal.exit

url_open_dyn_buf_internal.exit:                   ; preds = %1, %3
  %.0.i5 = phi i32 [ 0, %3 ], [ -12, %1 ]
  ret i32 %.0.i5
}